; Function Attrs: nounwind uwtable
define dso_local range(i32 0, 2) i32 @WPACKET_init_static_len(ptr noundef captures(none) %0, ptr noundef %1, i64 noundef %2, i64 noundef %3) local_unnamed_addr #0 {
  %5 = alloca ptr, align 8
  %6 = icmp ne ptr %1, null
  %7 = icmp ne i64 %2, 0
  %8 = and i1 %6, %7
  br i1 %8, label %9, label %35, !prof !14

9:                                                ; preds = %4
  %10 = add i64 %3, -8
  %or.cond.i = icmp ult i64 %10, -7
  %11 = shl nuw nsw i64 %3, 3
  %notmask.i = shl nsw i64 -1, %11
  %12 = xor i64 %notmask.i, -1
  %13 = add nuw nsw i64 %3, %12
  %14 = getelementptr inbounds nuw i8, ptr %0, i64 8
  store ptr %1, ptr %14, align 8, !tbaa !20
  store ptr null, ptr %0, align 8, !tbaa !17
  %15 = tail call i64 @llvm.umin.i64(i64 %13, i64 %2)
  %16 = select i1 %or.cond.i, i64 %2, i64 %15
  %17 = getelementptr inbounds nuw i8, ptr %0, i64 32
  store i64 %16, ptr %17, align 8, !tbaa !15
  %18 = getelementptr inbounds nuw i8, ptr %0, i64 48
  %19 = load i8, ptr %18, align 8
  %20 = and i8 %19, -2
  store i8 %20, ptr %18, align 8
  call void @llvm.lifetime.start.p0(i64 8, ptr nonnull %5) #12
  %21 = getelementptr inbounds nuw i8, ptr %0, i64 16
  tail call void @llvm.memset.p0.i64(ptr noundef nonnull align 8 dereferenceable(16) %21, i8 0, i64 16, i1 false)
  %22 = tail call noalias ptr @CRYPTO_zalloc(i64 noundef 40, ptr noundef nonnull @.str, i32 noundef 110) #12
  %23 = getelementptr inbounds nuw i8, ptr %0, i64 40
  store ptr %22, ptr %23, align 8, !tbaa !4
  %24 = icmp eq ptr %22, null
  br i1 %24, label %wpacket_intern_init_len.exit, label %25

25:                                               ; preds = %9
  %26 = icmp eq i64 %3, 0
  br i1 %26, label %wpacket_intern_init_len.exit, label %27

27:                                               ; preds = %25
  %28 = getelementptr inbounds nuw i8, ptr %22, i64 24
  store i64 %3, ptr %28, align 8, !tbaa !27
  %29 = getelementptr inbounds nuw i8, ptr %22, i64 16
  store i64 %3, ptr %29, align 8, !tbaa !28
  %30 = call i32 @WPACKET_allocate_bytes(ptr noundef nonnull %0, i64 noundef %3, ptr noundef nonnull %5)
  %.not.i = icmp eq i32 %30, 0
  %31 = load ptr, ptr %23, align 8, !tbaa !4
  br i1 %.not.i, label %32, label %33

32:                                               ; preds = %27
  call void @CRYPTO_free(ptr noundef %31, ptr noundef nonnull @.str, i32 noundef 120) #12
  store ptr null, ptr %23, align 8, !tbaa !4
  br label %wpacket_intern_init_len.exit

33:                                               ; preds = %27
  %34 = getelementptr inbounds nuw i8, ptr %31, i64 8
  store i64 0, ptr %34, align 8, !tbaa !29
  br label %wpacket_intern_init_len.exit

wpacket_intern_init_len.exit:                     ; preds = %9, %25, %32, %33
  %.0.i16 = phi i32 [ 1, %33 ], [ 0, %32 ], [ 0, %9 ], [ 1, %25 ]
  call void @llvm.lifetime.end.p0(i64 8, ptr nonnull %5) #12
  br label %35

35:                                               ; preds = %4, %wpacket_intern_init_len.exit
  %.0 = phi i32 [ %.0.i16, %wpacket_intern_init_len.exit ], [ 0, %4 ]
  ret i32 %.0
}